target datalayout = "e-m:e-p270:32:32-p271:32:32-p272:64:64-i64:64-i128:128-f80:128-n8:16:32:64-S128"
target triple = "x86_64-pc-linux-gnu"

%"class.pxrInternal_v0_24__pxrReserved__::HfPluginRegistry" = type <{ ptr, %"class.pxrInternal_v0_24__pxrReserved__::TfType", %"class.std::vector", %"class.std::map", i8, [7 x i8] }>
%"class.pxrInternal_v0_24__pxrReserved__::TfType" = type { ptr }
%"class.std::vector" = type { %"struct.std::_Vector_base" }
%"struct.std::_Vector_base" = type { %"struct.std::_Vector_base<pxrInternal_v0_24__pxrReserved__::Hf_PluginEntry, std::allocator<pxrInternal_v0_24__pxrReserved__::Hf_PluginEntry>>::_Vector_impl" }
%"struct.std::_Vector_base<pxrInternal_v0_24__pxrReserved__::Hf_PluginEntry, std::allocator<pxrInternal_v0_24__pxrReserved__::Hf_PluginEntry>>::_Vector_impl" = type { %"struct.std::_Vector_base<pxrInternal_v0_24__pxrReserved__::Hf_PluginEntry, std::allocator<pxrInternal_v0_24__pxrReserved__::Hf_PluginEntry>>::_Vector_impl_data" }
%"struct.std::_Vector_base<pxrInternal_v0_24__pxrReserved__::Hf_PluginEntry, std::allocator<pxrInternal_v0_24__pxrReserved__::Hf_PluginEntry>>::_Vector_impl_data" = type { ptr, ptr, ptr }
%"class.std::map" = type { %"class.std::_Rb_tree" }
%"class.std::_Rb_tree" = type { %"struct.std::_Rb_tree<pxrInternal_v0_24__pxrReserved__::TfToken, std::pair<const pxrInternal_v0_24__pxrReserved__::TfToken, unsigned long>, std::_Select1st<std::pair<const pxrInternal_v0_24__pxrReserved__::TfToken, unsigned long>>, std::less<pxrInternal_v0_24__pxrReserved__::TfToken>>::_Rb_tree_impl" }
%"struct.std::_Rb_tree<pxrInternal_v0_24__pxrReserved__::TfToken, std::pair<const pxrInternal_v0_24__pxrReserved__::TfToken, unsigned long>, std::_Select1st<std::pair<const pxrInternal_v0_24__pxrReserved__::TfToken, unsigned long>>, std::less<pxrInternal_v0_24__pxrReserved__::TfToken>>::_Rb_tree_impl" = type { [8 x i8], %"struct.std::_Rb_tree_header" }
%"struct.std::_Rb_tree_header" = type { %"struct.std::_Rb_tree_node_base", i64 }
%"struct.std::_Rb_tree_node_base" = type { i32, ptr, ptr, ptr }
%"class.std::__cxx11::basic_string" = type { %"struct.std::__cxx11::basic_string<char>::_Alloc_hider", i64, %union.anon }
%"struct.std::__cxx11::basic_string<char>::_Alloc_hider" = type { ptr }
%union.anon = type { i64, [8 x i8] }
%"class.pxrInternal_v0_24__pxrReserved__::TfToken" = type { %"class.pxrInternal_v0_24__pxrReserved__::TfPointerAndBits" }
%"class.pxrInternal_v0_24__pxrReserved__::TfPointerAndBits" = type { ptr }
%"struct.std::_Rb_tree_iterator" = type { ptr }
%"class.pxrInternal_v0_24__pxrReserved__::Hf_PluginEntry" = type <{ %"class.pxrInternal_v0_24__pxrReserved__::TfType", %"class.std::__cxx11::basic_string", i32, [4 x i8], ptr, i32, [4 x i8] }>
%"struct.std::_Rb_tree_const_iterator" = type { ptr }
%"struct.std::pair" = type { %"class.pxrInternal_v0_24__pxrReserved__::TfToken", i64 }
%"struct.std::_Rb_tree_node" = type { %"struct.std::_Rb_tree_node_base", %"struct.__gnu_cxx::__aligned_membuf" }
%"struct.__gnu_cxx::__aligned_membuf" = type { [16 x i8] }

; Function Attrs: mustprogress nounwind uwtable
define linkonce_odr noundef ptr @_ZNK9__gnu_cxx16__aligned_membufISt4pairIKN32pxrInternal_v0_24__pxrReserved__7TfTokenEmEE7_M_addrEv(ptr noundef nonnull align 8 dereferenceable(16) %0) #0 comdat align 2 {
  %2 = alloca ptr, align 8
  store ptr %0, ptr %2, align 8
  %3 = load ptr, ptr %2, align 8
  %4 = getelementptr inbounds nuw %"struct.__gnu_cxx::__aligned_membuf", ptr %3, i32 0, i32 0
  ret ptr %4
}

; Function Attrs: mustprogress nounwind uwtable
define linkonce_odr noundef ptr @_ZNK9__gnu_cxx16__aligned_membufISt4pairIKN32pxrInternal_v0_24__pxrReserved__7TfTokenEmEE6_M_ptrEv(ptr noundef nonnull align 8 dereferenceable(16) %0) #0 comdat align 2 {
  %2 = alloca ptr, align 8
  store ptr %0, ptr %2, align 8
  %3 = load ptr, ptr %2, align 8
  %4 = call noundef ptr @_ZNK9__gnu_cxx16__aligned_membufISt4pairIKN32pxrInternal_v0_24__pxrReserved__7TfTokenEmEE7_M_addrEv(ptr noundef nonnull align 8 dereferenceable(16) %3) #13
  ret ptr %4
}

; Function Attrs: mustprogress nounwind uwtable
define linkonce_odr void @_ZNSt17_Rb_tree_iteratorISt4pairIKN32pxrInternal_v0_24__pxrReserved__7TfTokenEmEEC2EPSt18_Rb_tree_node_base(ptr noundef nonnull align 8 dereferenceable(8) %0, ptr noundef %1) unnamed_addr #0 comdat align 2 {
  %3 = alloca ptr, align 8
  %4 = alloca ptr, align 8
  store ptr %0, ptr %3, align 8
  store ptr %1, ptr %4, align 8
  %5 = load ptr, ptr %3, align 8
  %6 = getelementptr inbounds nuw %"struct.std::_Rb_tree_iterator", ptr %5, i32 0, i32 0
  %7 = load ptr, ptr %4, align 8
  store ptr %7, ptr %6, align 8
  ret void
}

; Function Attrs: mustprogress nounwind uwtable
define linkonce_odr noundef ptr @_ZNKSt13_Rb_tree_nodeISt4pairIKN32pxrInternal_v0_24__pxrReserved__7TfTokenEmEE9_M_valptrEv(ptr noundef nonnull align 8 dereferenceable(48) %0) #0 comdat align 2 {
  %2 = alloca ptr, align 8
  store ptr %0, ptr %2, align 8
  %3 = load ptr, ptr %2, align 8
  %4 = getelementptr inbounds nuw %"struct.std::_Rb_tree_node", ptr %3, i32 0, i32 1
  %5 = call noundef ptr @_ZNK9__gnu_cxx16__aligned_membufISt4pairIKN32pxrInternal_v0_24__pxrReserved__7TfTokenEmEE6_M_ptrEv(ptr noundef nonnull align 8 dereferenceable(16) %4) #13
  ret ptr %5
}

; Function Attrs: mustprogress nounwind uwtable
define linkonce_odr ptr @_ZNSt8_Rb_treeIN32pxrInternal_v0_24__pxrReserved__7TfTokenESt4pairIKS1_mESt10_Select1stIS4_ESt4lessIS1_ESaIS4_EE3endEv(ptr noundef nonnull align 8 dereferenceable(48) %0) #0 comdat align 2 {
  %2 = alloca %"struct.std::_Rb_tree_iterator", align 8
  %3 = alloca ptr, align 8
  store ptr %0, ptr %3, align 8
  %4 = load ptr, ptr %3, align 8
  %5 = getelementptr inbounds nuw %"class.std::_Rb_tree", ptr %4, i32 0, i32 0
  %6 = getelementptr inbounds i8, ptr %5, i64 8
  %7 = getelementptr inbounds nuw %"struct.std::_Rb_tree_header", ptr %6, i32 0, i32 0
  call void @_ZNSt17_Rb_tree_iteratorISt4pairIKN32pxrInternal_v0_24__pxrReserved__7TfTokenEmEEC2EPSt18_Rb_tree_node_base(ptr noundef nonnull align 8 dereferenceable(8) %2, ptr noundef %7) #13
  %8 = getelementptr inbounds nuw %"struct.std::_Rb_tree_iterator", ptr %2, i32 0, i32 0
  %9 = load ptr, ptr %8, align 8
  ret ptr %9
}

; Function Attrs: mustprogress nounwind uwtable
define linkonce_odr noundef nonnull align 8 dereferenceable(64) ptr @_ZNSt6vectorIN32pxrInternal_v0_24__pxrReserved__14Hf_PluginEntryESaIS1_EEixEm(ptr noundef nonnull align 8 dereferenceable(24) %0, i64 noundef %1) #0 comdat align 2 {
  %3 = alloca ptr, align 8
  %4 = alloca i64, align 8
  store ptr %0, ptr %3, align 8
  store i64 %1, ptr %4, align 8
  %5 = load ptr, ptr %3, align 8
  %6 = getelementptr inbounds nuw %"struct.std::_Vector_base", ptr %5, i32 0, i32 0
  %7 = getelementptr inbounds nuw %"struct.std::_Vector_base<pxrInternal_v0_24__pxrReserved__::Hf_PluginEntry, std::allocator<pxrInternal_v0_24__pxrReserved__::Hf_PluginEntry>>::_Vector_impl_data", ptr %6, i32 0, i32 0
  %8 = load ptr, ptr %7, align 8
  %9 = load i64, ptr %4, align 8
  %10 = getelementptr inbounds %"class.pxrInternal_v0_24__pxrReserved__::Hf_PluginEntry", ptr %8, i64 %9
  ret ptr %10
}

; Function Attrs: mustprogress nounwind uwtable
define linkonce_odr noundef ptr @_ZNKSt23_Rb_tree_const_iteratorISt4pairIKN32pxrInternal_v0_24__pxrReserved__7TfTokenEmEEptEv(ptr noundef nonnull align 8 dereferenceable(8) %0) #0 comdat align 2 {
  %2 = alloca ptr, align 8
  store ptr %0, ptr %2, align 8
  %3 = load ptr, ptr %2, align 8
  %4 = getelementptr inbounds nuw %"struct.std::_Rb_tree_const_iterator", ptr %3, i32 0, i32 0
  %5 = load ptr, ptr %4, align 8
  %6 = call noundef ptr @_ZNKSt13_Rb_tree_nodeISt4pairIKN32pxrInternal_v0_24__pxrReserved__7TfTokenEmEE9_M_valptrEv(ptr noundef nonnull align 8 dereferenceable(48) %5)
  ret ptr %6
}

; Function Attrs: mustprogress nounwind uwtable
define linkonce_odr noundef zeroext i1 @_ZSteqRKSt23_Rb_tree_const_iteratorISt4pairIKN32pxrInternal_v0_24__pxrReserved__7TfTokenEmEES7_(ptr noundef nonnull align 8 dereferenceable(8) %0, ptr noundef nonnull align 8 dereferenceable(8) %1) #0 comdat {
  %3 = alloca ptr, align 8
  %4 = alloca ptr, align 8
  store ptr %0, ptr %3, align 8
  store ptr %1, ptr %4, align 8
  %5 = load ptr, ptr %3, align 8
  %6 = getelementptr inbounds nuw %"struct.std::_Rb_tree_const_iterator", ptr %5, i32 0, i32 0
  %7 = load ptr, ptr %6, align 8
  %8 = load ptr, ptr %4, align 8
  %9 = getelementptr inbounds nuw %"struct.std::_Rb_tree_const_iterator", ptr %8, i32 0, i32 0
  %10 = load ptr, ptr %9, align 8
  %11 = icmp eq ptr %7, %10
  ret i1 %11
}

; Function Attrs: mustprogress nounwind uwtable
define linkonce_odr ptr @_ZNSt3mapIN32pxrInternal_v0_24__pxrReserved__7TfTokenEmSt4lessIS1_ESaISt4pairIKS1_mEEE3endEv(ptr noundef nonnull align 8 dereferenceable(48) %0) #0 comdat align 2 {
  %2 = alloca %"struct.std::_Rb_tree_iterator", align 8
  %3 = alloca ptr, align 8
  store ptr %0, ptr %3, align 8
  %4 = load ptr, ptr %3, align 8
  %5 = getelementptr inbounds nuw %"class.std::map", ptr %4, i32 0, i32 0
  %6 = call ptr @_ZNSt8_Rb_treeIN32pxrInternal_v0_24__pxrReserved__7TfTokenESt4pairIKS1_mESt10_Select1stIS4_ESt4lessIS1_ESaIS4_EE3endEv(ptr noundef nonnull align 8 dereferenceable(48) %5) #13
  %7 = getelementptr inbounds nuw %"struct.std::_Rb_tree_iterator", ptr %2, i32 0, i32 0
  store ptr %6, ptr %7, align 8
  %8 = getelementptr inbounds nuw %"struct.std::_Rb_tree_iterator", ptr %2, i32 0, i32 0
  %9 = load ptr, ptr %8, align 8
  ret ptr %9
}

; Function Attrs: mustprogress nounwind uwtable
define linkonce_odr void @_ZNSt23_Rb_tree_const_iteratorISt4pairIKN32pxrInternal_v0_24__pxrReserved__7TfTokenEmEEC2ERKSt17_Rb_tree_iteratorIS4_E(ptr noundef nonnull align 8 dereferenceable(8) %0, ptr noundef nonnull align 8 dereferenceable(8) %1) unnamed_addr #0 comdat align 2 {
  %3 = alloca ptr, align 8
  %4 = alloca ptr, align 8
  store ptr %0, ptr %3, align 8
  store ptr %1, ptr %4, align 8
  %5 = load ptr, ptr %3, align 8
  %6 = getelementptr inbounds nuw %"struct.std::_Rb_tree_const_iterator", ptr %5, i32 0, i32 0
  %7 = load ptr, ptr %4, align 8
  %8 = getelementptr inbounds nuw %"struct.std::_Rb_tree_iterator", ptr %7, i32 0, i32 0
  %9 = load ptr, ptr %8, align 8
  store ptr %9, ptr %6, align 8
  ret void
}

; Function Attrs: mustprogress uwtable
define linkonce_odr ptr @_ZNSt3mapIN32pxrInternal_v0_24__pxrReserved__7TfTokenEmSt4lessIS1_ESaISt4pairIKS1_mEEE4findERS5_(ptr noundef nonnull align 8 dereferenceable(48) %0, ptr noundef nonnull align 8 dereferenceable(8) %1) #4 comdat align 2 {
  %3 = alloca %"struct.std::_Rb_tree_iterator", align 8
  %4 = alloca ptr, align 8
  %5 = alloca ptr, align 8
  store ptr %0, ptr %4, align 8
  store ptr %1, ptr %5, align 8
  %6 = load ptr, ptr %4, align 8
  %7 = getelementptr inbounds nuw %"class.std::map", ptr %6, i32 0, i32 0
  %8 = load ptr, ptr %5, align 8
  %9 = call ptr @_ZNSt8_Rb_treeIN32pxrInternal_v0_24__pxrReserved__7TfTokenESt4pairIKS1_mESt10_Select1stIS4_ESt4lessIS1_ESaIS4_EE4findERS3_(ptr noundef nonnull align 8 dereferenceable(48) %7, ptr noundef nonnull align 8 dereferenceable(8) %8)
  %10 = getelementptr inbounds nuw %"struct.std::_Rb_tree_iterator", ptr %3, i32 0, i32 0
  store ptr %9, ptr %10, align 8
  %11 = getelementptr inbounds nuw %"struct.std::_Rb_tree_iterator", ptr %3, i32 0, i32 0
  %12 = load ptr, ptr %11, align 8
  ret ptr %12
}

; Function Attrs: mustprogress uwtable
define noundef zeroext i1 @_ZN32pxrInternal_v0_24__pxrReserved__16HfPluginRegistry13GetPluginDescERKNS_7TfTokenEPNS_12HfPluginDescE(ptr noundef nonnull align 8 dereferenceable(89) %0, ptr noundef nonnull align 8 dereferenceable(8) %1, ptr noundef %2) #4 align 2 {
  %4 = alloca i1, align 1
  %5 = alloca ptr, align 8
  %6 = alloca ptr, align 8
  %7 = alloca ptr, align 8
  %8 = alloca %"struct.std::_Rb_tree_const_iterator", align 8
  %9 = alloca %"struct.std::_Rb_tree_iterator", align 8
  %10 = alloca %"struct.std::_Rb_tree_const_iterator", align 8
  %11 = alloca %"struct.std::_Rb_tree_iterator", align 8
  %12 = alloca ptr, align 8
  store ptr %0, ptr %5, align 8
  store ptr %1, ptr %6, align 8
  store ptr %2, ptr %7, align 8
  %13 = load ptr, ptr %5, align 8
  %14 = getelementptr inbounds nuw %"class.pxrInternal_v0_24__pxrReserved__::HfPluginRegistry", ptr %13, i32 0, i32 4
  %15 = load i8, ptr %14, align 8
  %16 = trunc i8 %15 to i1
  br i1 %16, label %18, label %17

17:                                               ; preds = %3
  call void @_ZN32pxrInternal_v0_24__pxrReserved__16HfPluginRegistry16_DiscoverPluginsEv(ptr noundef nonnull align 8 dereferenceable(89) %13)
  br label %18

18:                                               ; preds = %17, %3
  %19 = getelementptr inbounds nuw %"class.pxrInternal_v0_24__pxrReserved__::HfPluginRegistry", ptr %13, i32 0, i32 3
  %20 = load ptr, ptr %6, align 8
  %21 = call ptr @_ZNSt3mapIN32pxrInternal_v0_24__pxrReserved__7TfTokenEmSt4lessIS1_ESaISt4pairIKS1_mEEE4findERS5_(ptr noundef nonnull align 8 dereferenceable(48) %19, ptr noundef nonnull align 8 dereferenceable(8) %20)
  %22 = getelementptr inbounds nuw %"struct.std::_Rb_tree_iterator", ptr %9, i32 0, i32 0
  store ptr %21, ptr %22, align 8
  call void @_ZNSt23_Rb_tree_const_iteratorISt4pairIKN32pxrInternal_v0_24__pxrReserved__7TfTokenEmEEC2ERKSt17_Rb_tree_iteratorIS4_E(ptr noundef nonnull align 8 dereferenceable(8) %8, ptr noundef nonnull align 8 dereferenceable(8) %9) #13
  %23 = getelementptr inbounds nuw %"class.pxrInternal_v0_24__pxrReserved__::HfPluginRegistry", ptr %13, i32 0, i32 3
  %24 = call ptr @_ZNSt3mapIN32pxrInternal_v0_24__pxrReserved__7TfTokenEmSt4lessIS1_ESaISt4pairIKS1_mEEE3endEv(ptr noundef nonnull align 8 dereferenceable(48) %23) #13
  %25 = getelementptr inbounds nuw %"struct.std::_Rb_tree_iterator", ptr %11, i32 0, i32 0
  store ptr %24, ptr %25, align 8
  call void @_ZNSt23_Rb_tree_const_iteratorISt4pairIKN32pxrInternal_v0_24__pxrReserved__7TfTokenEmEEC2ERKSt17_Rb_tree_iteratorIS4_E(ptr noundef nonnull align 8 dereferenceable(8) %10, ptr noundef nonnull align 8 dereferenceable(8) %11) #13
  %26 = call noundef zeroext i1 @_ZSteqRKSt23_Rb_tree_const_iteratorISt4pairIKN32pxrInternal_v0_24__pxrReserved__7TfTokenEmEES7_(ptr noundef nonnull align 8 dereferenceable(8) %8, ptr noundef nonnull align 8 dereferenceable(8) %10) #13
  br i1 %26, label %27, label %28

27:                                               ; preds = %18
  store i1 false, ptr %4, align 1
  br label %36

28:                                               ; preds = %18
  %29 = getelementptr inbounds nuw %"class.pxrInternal_v0_24__pxrReserved__::HfPluginRegistry", ptr %13, i32 0, i32 2
  %30 = call noundef ptr @_ZNKSt23_Rb_tree_const_iteratorISt4pairIKN32pxrInternal_v0_24__pxrReserved__7TfTokenEmEEptEv(ptr noundef nonnull align 8 dereferenceable(8) %8) #13
  %31 = getelementptr inbounds nuw %"struct.std::pair", ptr %30, i32 0, i32 1
  %32 = load i64, ptr %31, align 8
  %33 = call noundef nonnull align 8 dereferenceable(64) ptr @_ZNSt6vectorIN32pxrInternal_v0_24__pxrReserved__14Hf_PluginEntryESaIS1_EEixEm(ptr noundef nonnull align 8 dereferenceable(24) %29, i64 noundef %32) #13
  store ptr %33, ptr %12, align 8
  %34 = load ptr, ptr %12, align 8
  %35 = load ptr, ptr %7, align 8
  call void @_ZNK32pxrInternal_v0_24__pxrReserved__14Hf_PluginEntry7GetDescEPNS_12HfPluginDescE(ptr noundef nonnull align 8 dereferenceable(64) %34, ptr noundef %35)
  store i1 true, ptr %4, align 1
  br label %36

36:                                               ; preds = %28, %27
  %37 = load i1, ptr %4, align 1
  ret i1 %37
}