; Function Attrs: mustprogress uwtable
define noundef zeroext i1 @_ZN32pxrInternal_v0_24__pxrReserved__16HfPluginRegistry13GetPluginDescERKNS_7TfTokenEPNS_12HfPluginDescE(ptr noundef nonnull align 8 dereferenceable(89) %0, ptr noundef nonnull align 8 dereferenceable(8) %1, ptr noundef %2) local_unnamed_addr #4 align 2 {
  %4 = getelementptr inbounds nuw i8, ptr %0, i64 88
  %5 = load i8, ptr %4, align 8
  %6 = trunc i8 %5 to i1
  br i1 %6, label %8, label %7

7:                                                ; preds = %3
  tail call void @_ZN32pxrInternal_v0_24__pxrReserved__16HfPluginRegistry16_DiscoverPluginsEv(ptr noundef nonnull align 8 dereferenceable(89) %0)
  br label %8

8:                                                ; preds = %7, %3
  %9 = getelementptr inbounds nuw i8, ptr %0, i64 40
  %10 = tail call ptr @_ZNSt8_Rb_treeIN32pxrInternal_v0_24__pxrReserved__7TfTokenESt4pairIKS1_mESt10_Select1stIS4_ESt4lessIS1_ESaIS4_EE4findERS3_(ptr noundef nonnull align 8 dereferenceable(48) %9, ptr noundef nonnull align 8 dereferenceable(8) %1)
  %11 = getelementptr inbounds i8, ptr %0, i64 48
  %12 = icmp ne ptr %10, %11
  br i1 %12, label %13, label %19

13:                                               ; preds = %8
  %14 = getelementptr inbounds nuw i8, ptr %0, i64 16
  %15 = getelementptr inbounds i8, ptr %10, i64 40
  %16 = load i64, ptr %15, align 8
  %17 = load ptr, ptr %14, align 8
  %18 = getelementptr inbounds %"class.pxrInternal_v0_24__pxrReserved__::Hf_PluginEntry", ptr %17, i64 %16
  tail call void @_ZNK32pxrInternal_v0_24__pxrReserved__14Hf_PluginEntry7GetDescEPNS_12HfPluginDescE(ptr noundef nonnull align 8 dereferenceable(64) %18, ptr noundef %2)
  br label %19

19:                                               ; preds = %8, %13
  ret i1 %12
}